target datalayout = "e-m:e-p270:32:32-p271:32:32-p272:64:64-i64:64-i128:128-f80:128-n8:16:32:64-S128"
target triple = "x86_64-pc-linux-gnu"

@.str.59 = private unnamed_addr constant [23 x i8] c"    (no certificates)\0A\00", align 1

; Function Attrs: inlinehint nounwind uwtable
define internal ptr @ossl_check_const_X509_sk_type(ptr noundef %0) #2 {
  %2 = alloca ptr, align 8
  store ptr %0, ptr %2, align 8, !tbaa !3
  %3 = load ptr, ptr %2, align 8, !tbaa !3
  ret ptr %3
}

; Function Attrs: nounwind uwtable
define internal i32 @print_certs(ptr noundef %0, ptr noundef %1) #0 {
  %3 = alloca i32, align 4
  %4 = alloca ptr, align 8
  %5 = alloca ptr, align 8
  %6 = alloca i32, align 4
  %7 = alloca i32, align 4
  %8 = alloca ptr, align 8
  store ptr %0, ptr %4, align 8, !tbaa !15
  store ptr %1, ptr %5, align 8, !tbaa !3
  call void @llvm.lifetime.start.p0(i64 4, ptr %6) #4
  %9 = load ptr, ptr %5, align 8, !tbaa !3
  %10 = icmp eq ptr %9, null
  br i1 %10, label %16, label %11

11:                                               ; preds = %2
  %12 = load ptr, ptr %5, align 8, !tbaa !3
  %13 = call ptr @ossl_check_const_X509_sk_type(ptr noundef %12)
  %14 = call i32 @OPENSSL_sk_num(ptr noundef %13)
  %15 = icmp sle i32 %14, 0
  br i1 %15, label %16, label %21

16:                                               ; preds = %11, %2
  %17 = load ptr, ptr %4, align 8, !tbaa !15
  %18 = call i32 (ptr, ptr, ...) @BIO_printf(ptr noundef %17, ptr noundef @.str.59)
  %19 = icmp sge i32 %18, 0
  %20 = zext i1 %19 to i32
  store i32 %20, ptr %3, align 4
  store i32 1, ptr %7, align 4
  br label %57

21:                                               ; preds = %11
  store i32 0, ptr %6, align 4, !tbaa !17
  br label %22

22:                                               ; preds = %53, %21
  %23 = load i32, ptr %6, align 4, !tbaa !17
  %24 = load ptr, ptr %5, align 8, !tbaa !3
  %25 = call ptr @ossl_check_const_X509_sk_type(ptr noundef %24)
  %26 = call i32 @OPENSSL_sk_num(ptr noundef %25)
  %27 = icmp slt i32 %23, %26
  br i1 %27, label %28, label %56

28:                                               ; preds = %22
  call void @llvm.lifetime.start.p0(i64 8, ptr %8) #4
  %29 = load ptr, ptr %5, align 8, !tbaa !3
  %30 = call ptr @ossl_check_const_X509_sk_type(ptr noundef %29)
  %31 = load i32, ptr %6, align 4, !tbaa !17
  %32 = call ptr @OPENSSL_sk_value(ptr noundef %30, i32 noundef %31)
  store ptr %32, ptr %8, align 8, !tbaa !11
  %33 = load ptr, ptr %8, align 8, !tbaa !11
  %34 = icmp ne ptr %33, null
  br i1 %34, label %35, label %49

35:                                               ; preds = %28
  %36 = load ptr, ptr %4, align 8, !tbaa !15
  %37 = load ptr, ptr %8, align 8, !tbaa !11
  %38 = call i32 @ossl_x509_print_ex_brief(ptr noundef %36, ptr noundef %37, i64 noundef 0)
  %39 = icmp ne i32 %38, 0
  br i1 %39, label %41, label %40

40:                                               ; preds = %35
  store i32 0, ptr %3, align 4
  store i32 1, ptr %7, align 4
  br label %50

41:                                               ; preds = %35
  %42 = load ptr, ptr %4, align 8, !tbaa !15
  %43 = load ptr, ptr %8, align 8, !tbaa !11
  %44 = call ptr @X509_get0_extensions(ptr noundef %43)
  %45 = call i32 @X509V3_extensions_print(ptr noundef %42, ptr noundef null, ptr noundef %44, i64 noundef 8192, i32 noundef 8)
  %46 = icmp ne i32 %45, 0
  br i1 %46, label %48, label %47

47:                                               ; preds = %41
  store i32 0, ptr %3, align 4
  store i32 1, ptr %7, align 4
  br label %50

48:                                               ; preds = %41
  br label %49

49:                                               ; preds = %48, %28
  store i32 0, ptr %7, align 4
  br label %50

50:                                               ; preds = %49, %47, %40
  call void @llvm.lifetime.end.p0(i64 8, ptr %8) #4
  %51 = load i32, ptr %7, align 4
  switch i32 %51, label %57 [
    i32 0, label %52
  ]

52:                                               ; preds = %50
  br label %53

53:                                               ; preds = %52
  %54 = load i32, ptr %6, align 4, !tbaa !17
  %55 = add nsw i32 %54, 1
  store i32 %55, ptr %6, align 4, !tbaa !17
  br label %22, !llvm.loop !84

56:                                               ; preds = %22
  store i32 1, ptr %3, align 4
  store i32 1, ptr %7, align 4
  br label %57

57:                                               ; preds = %56, %50, %16
  call void @llvm.lifetime.end.p0(i64 4, ptr %6) #4
  %58 = load i32, ptr %3, align 4
  ret i32 %58
}