; Function Attrs: nounwind uwtable
define internal fastcc void @print_certs(ptr noundef nonnull %0, ptr noundef %1) unnamed_addr #0 {
  %3 = icmp eq ptr %1, null
  br i1 %3, label %9, label %4

4:                                                ; preds = %2
  %5 = tail call i32 @OPENSSL_sk_num(ptr noundef nonnull %1) #4
  %6 = icmp slt i32 %5, 1
  br i1 %6, label %9, label %.preheader

.preheader:                                       ; preds = %4
  %7 = tail call i32 @OPENSSL_sk_num(ptr noundef nonnull %1) #4
  %8 = icmp sgt i32 %7, 0
  br i1 %8, label %.lr.ph, label %.loopexit

9:                                                ; preds = %4, %2
  %10 = tail call i32 (ptr, ptr, ...) @BIO_printf(ptr noundef nonnull %0, ptr noundef nonnull @.str.59) #4
  br label %.loopexit

.lr.ph:                                           ; preds = %.preheader, %.critedge
  %.01520 = phi i32 [ %17, %.critedge ], [ 0, %.preheader ]
  %11 = tail call ptr @OPENSSL_sk_value(ptr noundef nonnull %1, i32 noundef %.01520) #4
  %.not = icmp eq ptr %11, null
  br i1 %.not, label %.critedge, label %12

12:                                               ; preds = %.lr.ph
  %13 = tail call i32 @ossl_x509_print_ex_brief(ptr noundef nonnull %0, ptr noundef nonnull %11, i64 noundef 0)
  %.not18 = icmp eq i32 %13, 0
  br i1 %.not18, label %.loopexit, label %14

14:                                               ; preds = %12
  %15 = tail call ptr @X509_get0_extensions(ptr noundef nonnull %11) #4
  %16 = tail call i32 @X509V3_extensions_print(ptr noundef nonnull %0, ptr noundef null, ptr noundef %15, i64 noundef 8192, i32 noundef 8) #4
  %.not19 = icmp eq i32 %16, 0
  br i1 %.not19, label %.loopexit, label %.critedge

.critedge:                                        ; preds = %14, %.lr.ph
  %17 = add nuw nsw i32 %.01520, 1
  %18 = tail call i32 @OPENSSL_sk_num(ptr noundef nonnull %1) #4
  %19 = icmp slt i32 %17, %18
  br i1 %19, label %.lr.ph, label %.loopexit, !llvm.loop !58

.loopexit:                                        ; preds = %14, %12, %.critedge, %.preheader, %9
  ret void
}